target datalayout = "e-m:e-p270:32:32-p271:32:32-p272:64:64-i64:64-i128:128-f80:128-n8:16:32:64-S128"
target triple = "x86_64-pc-linux-gnu"

%struct._zend_refcounted_h = type { i32, %union.anon }
%union.anon = type { i32 }
%struct._zend_string = type { %struct._zend_refcounted_h, i64, i64, [1 x i8] }
%struct._zend_execute_data = type { ptr, ptr, ptr, ptr, %struct._zval_struct, ptr, ptr, ptr, ptr }
%struct._zval_struct = type { %union._zend_value, %union.anon.0, %union.anon.3 }
%union._zend_value = type { i64 }
%union.anon.0 = type { i32 }
%union.anon.3 = type { i32 }

@php_base64_decode_ex = ifunc ptr (ptr, i64, i1), ptr @resolve_base64_decode

; Function Attrs: nounwind uwtable
define hidden void @zif_base64_decode(ptr noundef %0, ptr noundef %1) #6 {
  %3 = alloca ptr, align 8
  %4 = alloca ptr, align 8
  %5 = alloca ptr, align 8
  %6 = alloca i1, align 1
  %7 = alloca ptr, align 8
  %8 = alloca ptr, align 8
  %9 = alloca ptr, align 8
  %10 = alloca i8, align 1
  %11 = alloca i32, align 4
  %12 = alloca i8, align 1
  %13 = alloca ptr, align 8
  %14 = alloca ptr, align 8
  %15 = alloca i1, align 1
  %16 = alloca ptr, align 8
  %17 = alloca ptr, align 8
  %18 = alloca i8, align 1
  %19 = alloca i32, align 4
  %20 = alloca i8, align 1
  %21 = alloca ptr, align 8
  %22 = alloca ptr, align 8
  %23 = alloca i8, align 1
  %24 = alloca i32, align 4
  %25 = alloca ptr, align 8
  %26 = alloca ptr, align 8
  %27 = alloca ptr, align 8
  %28 = alloca i8, align 1
  %29 = alloca i32, align 4
  %30 = alloca i32, align 4
  %31 = alloca i1, align 1
  %32 = alloca ptr, align 8
  %33 = alloca ptr, align 8
  %34 = alloca ptr, align 8
  %35 = alloca i8, align 1
  %36 = alloca i32, align 4
  %37 = alloca ptr, align 8
  %38 = alloca ptr, align 8
  %39 = alloca ptr, align 8
  %40 = alloca ptr, align 8
  %41 = alloca i8, align 1
  %42 = alloca i64, align 8
  %43 = alloca ptr, align 8
  %44 = alloca i32, align 4
  %45 = alloca i32, align 4
  %46 = alloca i32, align 4
  %47 = alloca i32, align 4
  %48 = alloca i32, align 4
  %49 = alloca ptr, align 8
  %50 = alloca ptr, align 8
  %51 = alloca i32, align 4
  %52 = alloca ptr, align 8
  %53 = alloca i8, align 1
  %54 = alloca i8, align 1
  %55 = alloca i32, align 4
  %56 = alloca ptr, align 8
  %57 = alloca ptr, align 8
  store ptr %0, ptr %38, align 8
  store ptr %1, ptr %39, align 8
  store i8 0, ptr %41, align 1
  br label %58

58:                                               ; preds = %2
  store i32 0, ptr %44, align 4
  store i32 1, ptr %45, align 4
  store i32 2, ptr %46, align 4
  %59 = load ptr, ptr %38, align 8
  %60 = getelementptr inbounds %struct._zend_execute_data, ptr %59, i32 0, i32 4
  %61 = getelementptr inbounds %struct._zval_struct, ptr %60, i32 0, i32 2
  %62 = load i32, ptr %61, align 4
  store i32 %62, ptr %47, align 4
  store i32 0, ptr %48, align 4
  store ptr null, ptr %50, align 8
  store i32 0, ptr %51, align 4
  store ptr null, ptr %52, align 8
  store i8 0, ptr %53, align 1
  store i8 0, ptr %54, align 1
  store i32 0, ptr %55, align 4
  br label %63

63:                                               ; preds = %58
  %64 = load i32, ptr %47, align 4
  %65 = load i32, ptr %45, align 4
  %66 = icmp ult i32 %64, %65
  %67 = xor i1 %66, true
  %68 = xor i1 %67, true
  %69 = zext i1 %68 to i32
  %70 = sext i32 %69 to i64
  %71 = icmp ne i64 %70, 0
  br i1 %71, label %81, label %72

72:                                               ; preds = %63
  %73 = load i32, ptr %47, align 4
  %74 = load i32, ptr %46, align 4
  %75 = icmp ugt i32 %73, %74
  %76 = xor i1 %75, true
  %77 = xor i1 %76, true
  %78 = zext i1 %77 to i32
  %79 = sext i32 %78 to i64
  %80 = icmp ne i64 %79, 0
  br i1 %80, label %81, label %84

81:                                               ; preds = %72, %63
  %82 = load i32, ptr %45, align 4
  %83 = load i32, ptr %46, align 4
  call void @zend_wrong_parameters_count_error(i32 noundef %82, i32 noundef %83)
  store i32 1, ptr %55, align 4
  br label %323

84:                                               ; preds = %72
  %85 = load ptr, ptr %38, align 8
  %86 = getelementptr inbounds %struct._zval_struct, ptr %85, i64 4
  store ptr %86, ptr %49, align 8
  %87 = load i32, ptr %48, align 4
  %88 = add i32 %87, 1
  store i32 %88, ptr %48, align 4
  %89 = load i32, ptr %48, align 4
  %90 = load i32, ptr %45, align 4
  %91 = icmp ule i32 %89, %90
  br i1 %91, label %97, label %92

92:                                               ; preds = %84
  %93 = load i8, ptr %54, align 1
  %94 = trunc i8 %93 to i1
  %95 = zext i1 %94 to i32
  %96 = icmp eq i32 %95, 1
  br label %97

97:                                               ; preds = %92, %84
  %98 = phi i1 [ true, %84 ], [ %96, %92 ]
  call void @llvm.assume(i1 %98)
  %99 = load i32, ptr %48, align 4
  %100 = load i32, ptr %45, align 4
  %101 = icmp ugt i32 %99, %100
  br i1 %101, label %107, label %102

102:                                              ; preds = %97
  %103 = load i8, ptr %54, align 1
  %104 = trunc i8 %103 to i1
  %105 = zext i1 %104 to i32
  %106 = icmp eq i32 %105, 0
  br label %107

107:                                              ; preds = %102, %97
  %108 = phi i1 [ true, %97 ], [ %106, %102 ]
  call void @llvm.assume(i1 %108)
  %109 = load i8, ptr %54, align 1
  %110 = trunc i8 %109 to i1
  br i1 %110, label %111, label %122

111:                                              ; preds = %107
  %112 = load i32, ptr %48, align 4
  %113 = load i32, ptr %47, align 4
  %114 = icmp ugt i32 %112, %113
  %115 = xor i1 %114, true
  %116 = xor i1 %115, true
  %117 = zext i1 %116 to i32
  %118 = sext i32 %117 to i64
  %119 = icmp ne i64 %118, 0
  br i1 %119, label %120, label %121

120:                                              ; preds = %111
  br label %323

121:                                              ; preds = %111
  br label %122

122:                                              ; preds = %121, %107
  %123 = load ptr, ptr %49, align 8
  %124 = getelementptr inbounds %struct._zval_struct, ptr %123, i32 1
  store ptr %124, ptr %49, align 8
  %125 = load ptr, ptr %49, align 8
  store ptr %125, ptr %50, align 8
  %126 = load ptr, ptr %50, align 8
  %127 = load i32, ptr %48, align 4
  store ptr %126, ptr %32, align 8
  store ptr %40, ptr %33, align 8
  store ptr %42, ptr %34, align 8
  store i8 0, ptr %35, align 1
  store i32 %127, ptr %36, align 4
  %128 = load ptr, ptr %32, align 8
  %129 = load i8, ptr %35, align 1
  %130 = trunc i8 %129 to i1
  %131 = load i32, ptr %36, align 4
  store ptr %128, ptr %21, align 8
  store ptr %37, ptr %22, align 8
  %132 = zext i1 %130 to i8
  store i8 %132, ptr %23, align 1
  store i32 %131, ptr %24, align 4
  %133 = load ptr, ptr %21, align 8
  %134 = load ptr, ptr %22, align 8
  %135 = load i8, ptr %23, align 1
  %136 = trunc i8 %135 to i1
  %137 = load i32, ptr %24, align 4
  store ptr %133, ptr %16, align 8
  store ptr %134, ptr %17, align 8
  %138 = zext i1 %136 to i8
  store i8 %138, ptr %18, align 1
  store i32 %137, ptr %19, align 4
  store i8 0, ptr %20, align 1
  %139 = load ptr, ptr %16, align 8
  store ptr %139, ptr %13, align 8
  %140 = load ptr, ptr %13, align 8
  %141 = getelementptr inbounds %struct._zval_struct, ptr %140, i32 0, i32 1
  %142 = load i8, ptr %141, align 8
  %143 = zext i8 %142 to i32
  %144 = icmp eq i32 %143, 6
  br i1 %144, label %145, label %149

145:                                              ; preds = %122
  %146 = load ptr, ptr %16, align 8
  %147 = load ptr, ptr %146, align 8
  %148 = load ptr, ptr %17, align 8
  store ptr %147, ptr %148, align 8
  br label %174

149:                                              ; preds = %122
  %150 = load i8, ptr %18, align 1
  %151 = trunc i8 %150 to i1
  br i1 %151, label %152, label %161

152:                                              ; preds = %149
  %153 = load ptr, ptr %16, align 8
  store ptr %153, ptr %14, align 8
  %154 = load ptr, ptr %14, align 8
  %155 = getelementptr inbounds %struct._zval_struct, ptr %154, i32 0, i32 1
  %156 = load i8, ptr %155, align 8
  %157 = zext i8 %156 to i32
  %158 = icmp eq i32 %157, 1
  br i1 %158, label %159, label %161

159:                                              ; preds = %152
  %160 = load ptr, ptr %17, align 8
  store ptr null, ptr %160, align 8
  br label %174

161:                                              ; preds = %152, %149
  %162 = load i8, ptr %20, align 1
  %163 = trunc i8 %162 to i1
  br i1 %163, label %164, label %169

164:                                              ; preds = %161
  %165 = load ptr, ptr %16, align 8
  %166 = load ptr, ptr %17, align 8
  %167 = load i32, ptr %19, align 4
  %168 = call zeroext i1 @zend_flf_parse_arg_str_slow(ptr noundef %165, ptr noundef %166, i32 noundef %167) #13
  store i1 %168, ptr %15, align 1
  br label %175

169:                                              ; preds = %161
  %170 = load ptr, ptr %16, align 8
  %171 = load ptr, ptr %17, align 8
  %172 = load i32, ptr %19, align 4
  %173 = call zeroext i1 @zend_parse_arg_str_slow(ptr noundef %170, ptr noundef %171, i32 noundef %172) #13
  store i1 %173, ptr %15, align 1
  br label %175

174:                                              ; preds = %159, %145
  store i1 true, ptr %15, align 1
  br label %175

175:                                              ; preds = %174, %169, %164
  %176 = load i1, ptr %15, align 1
  br i1 %176, label %178, label %177

177:                                              ; preds = %175
  store i1 false, ptr %31, align 1
  br label %197

178:                                              ; preds = %175
  %179 = load i8, ptr %35, align 1
  %180 = trunc i8 %179 to i1
  br i1 %180, label %181, label %188

181:                                              ; preds = %178
  %182 = load ptr, ptr %37, align 8
  %183 = icmp ne ptr %182, null
  %184 = xor i1 %183, true
  br i1 %184, label %185, label %188

185:                                              ; preds = %181
  %186 = load ptr, ptr %33, align 8
  store ptr null, ptr %186, align 8
  %187 = load ptr, ptr %34, align 8
  store i64 0, ptr %187, align 8
  br label %196

188:                                              ; preds = %181, %178
  %189 = load ptr, ptr %37, align 8
  %190 = getelementptr inbounds %struct._zend_string, ptr %189, i32 0, i32 3
  %191 = load ptr, ptr %33, align 8
  store ptr %190, ptr %191, align 8
  %192 = load ptr, ptr %37, align 8
  %193 = getelementptr inbounds %struct._zend_string, ptr %192, i32 0, i32 2
  %194 = load i64, ptr %193, align 8
  %195 = load ptr, ptr %34, align 8
  store i64 %194, ptr %195, align 8
  br label %196

196:                                              ; preds = %188, %185
  store i1 true, ptr %31, align 1
  br label %197

197:                                              ; preds = %196, %177
  %198 = load i1, ptr %31, align 1
  %199 = xor i1 %198, true
  %200 = xor i1 %199, true
  %201 = xor i1 %200, true
  %202 = zext i1 %201 to i32
  %203 = sext i32 %202 to i64
  %204 = icmp ne i64 %203, 0
  br i1 %204, label %205, label %206

205:                                              ; preds = %197
  store i32 4, ptr %51, align 4
  store i32 9, ptr %55, align 4
  br label %323

206:                                              ; preds = %197
  store i8 1, ptr %54, align 1
  %207 = load i32, ptr %48, align 4
  %208 = add i32 %207, 1
  store i32 %208, ptr %48, align 4
  %209 = load i32, ptr %48, align 4
  %210 = load i32, ptr %45, align 4
  %211 = icmp ule i32 %209, %210
  br i1 %211, label %217, label %212

212:                                              ; preds = %206
  %213 = load i8, ptr %54, align 1
  %214 = trunc i8 %213 to i1
  %215 = zext i1 %214 to i32
  %216 = icmp eq i32 %215, 1
  br label %217

217:                                              ; preds = %212, %206
  %218 = phi i1 [ true, %206 ], [ %216, %212 ]
  call void @llvm.assume(i1 %218)
  %219 = load i32, ptr %48, align 4
  %220 = load i32, ptr %45, align 4
  %221 = icmp ugt i32 %219, %220
  br i1 %221, label %227, label %222

222:                                              ; preds = %217
  %223 = load i8, ptr %54, align 1
  %224 = trunc i8 %223 to i1
  %225 = zext i1 %224 to i32
  %226 = icmp eq i32 %225, 0
  br label %227

227:                                              ; preds = %222, %217
  %228 = phi i1 [ true, %217 ], [ %226, %222 ]
  call void @llvm.assume(i1 %228)
  %229 = load i8, ptr %54, align 1
  %230 = trunc i8 %229 to i1
  br i1 %230, label %231, label %242

231:                                              ; preds = %227
  %232 = load i32, ptr %48, align 4
  %233 = load i32, ptr %47, align 4
  %234 = icmp ugt i32 %232, %233
  %235 = xor i1 %234, true
  %236 = xor i1 %235, true
  %237 = zext i1 %236 to i32
  %238 = sext i32 %237 to i64
  %239 = icmp ne i64 %238, 0
  br i1 %239, label %240, label %241

240:                                              ; preds = %231
  br label %323

241:                                              ; preds = %231
  br label %242

242:                                              ; preds = %241, %227
  %243 = load ptr, ptr %49, align 8
  %244 = getelementptr inbounds %struct._zval_struct, ptr %243, i32 1
  store ptr %244, ptr %49, align 8
  %245 = load ptr, ptr %49, align 8
  store ptr %245, ptr %50, align 8
  %246 = load ptr, ptr %50, align 8
  %247 = load i32, ptr %48, align 4
  store ptr %246, ptr %25, align 8
  store ptr %41, ptr %26, align 8
  store ptr %53, ptr %27, align 8
  store i8 0, ptr %28, align 1
  store i32 %247, ptr %29, align 4
  %248 = load ptr, ptr %25, align 8
  %249 = load ptr, ptr %26, align 8
  %250 = load ptr, ptr %27, align 8
  %251 = load i8, ptr %28, align 1
  %252 = trunc i8 %251 to i1
  %253 = load i32, ptr %29, align 4
  store ptr %248, ptr %7, align 8
  store ptr %249, ptr %8, align 8
  store ptr %250, ptr %9, align 8
  %254 = zext i1 %252 to i8
  store i8 %254, ptr %10, align 1
  store i32 %253, ptr %11, align 4
  store i8 0, ptr %12, align 1
  %255 = load i8, ptr %10, align 1
  %256 = trunc i8 %255 to i1
  br i1 %256, label %257, label %259

257:                                              ; preds = %242
  %258 = load ptr, ptr %9, align 8
  store i8 0, ptr %258, align 1
  br label %259

259:                                              ; preds = %257, %242
  %260 = load ptr, ptr %7, align 8
  store ptr %260, ptr %3, align 8
  %261 = load ptr, ptr %3, align 8
  %262 = getelementptr inbounds %struct._zval_struct, ptr %261, i32 0, i32 1
  %263 = load i8, ptr %262, align 8
  %264 = zext i8 %263 to i32
  %265 = icmp eq i32 %264, 3
  br i1 %265, label %266, label %268

266:                                              ; preds = %259
  %267 = load ptr, ptr %8, align 8
  store i8 1, ptr %267, align 1
  br label %304

268:                                              ; preds = %259
  %269 = load ptr, ptr %7, align 8
  store ptr %269, ptr %4, align 8
  %270 = load ptr, ptr %4, align 8
  %271 = getelementptr inbounds %struct._zval_struct, ptr %270, i32 0, i32 1
  %272 = load i8, ptr %271, align 8
  %273 = zext i8 %272 to i32
  %274 = icmp eq i32 %273, 2
  br i1 %274, label %275, label %277

275:                                              ; preds = %268
  %276 = load ptr, ptr %8, align 8
  store i8 0, ptr %276, align 1
  br label %303

277:                                              ; preds = %268
  %278 = load i8, ptr %10, align 1
  %279 = trunc i8 %278 to i1
  br i1 %279, label %280, label %290

280:                                              ; preds = %277
  %281 = load ptr, ptr %7, align 8
  store ptr %281, ptr %5, align 8
  %282 = load ptr, ptr %5, align 8
  %283 = getelementptr inbounds %struct._zval_struct, ptr %282, i32 0, i32 1
  %284 = load i8, ptr %283, align 8
  %285 = zext i8 %284 to i32
  %286 = icmp eq i32 %285, 1
  br i1 %286, label %287, label %290

287:                                              ; preds = %280
  %288 = load ptr, ptr %9, align 8
  store i8 1, ptr %288, align 1
  %289 = load ptr, ptr %8, align 8
  store i8 0, ptr %289, align 1
  br label %303

290:                                              ; preds = %280, %277
  %291 = load i8, ptr %12, align 1
  %292 = trunc i8 %291 to i1
  br i1 %292, label %293, label %298

293:                                              ; preds = %290
  %294 = load ptr, ptr %7, align 8
  %295 = load ptr, ptr %8, align 8
  %296 = load i32, ptr %11, align 4
  %297 = call zeroext i1 @zend_flf_parse_arg_bool_slow(ptr noundef %294, ptr noundef %295, i32 noundef %296) #13
  store i1 %297, ptr %6, align 1
  br label %305

298:                                              ; preds = %290
  %299 = load ptr, ptr %7, align 8
  %300 = load ptr, ptr %8, align 8
  %301 = load i32, ptr %11, align 4
  %302 = call zeroext i1 @zend_parse_arg_bool_slow(ptr noundef %299, ptr noundef %300, i32 noundef %301) #13
  store i1 %302, ptr %6, align 1
  br label %305

303:                                              ; preds = %287, %275
  br label %304

304:                                              ; preds = %303, %266
  store i1 true, ptr %6, align 1
  br label %305

305:                                              ; preds = %304, %298, %293
  %306 = load i1, ptr %6, align 1
  %307 = xor i1 %306, true
  %308 = xor i1 %307, true
  %309 = xor i1 %308, true
  %310 = zext i1 %309 to i32
  %311 = sext i32 %310 to i64
  %312 = icmp ne i64 %311, 0
  br i1 %312, label %313, label %314

313:                                              ; preds = %305
  store i32 2, ptr %51, align 4
  store i32 9, ptr %55, align 4
  br label %323

314:                                              ; preds = %305
  %315 = load i32, ptr %48, align 4
  %316 = load i32, ptr %46, align 4
  %317 = icmp eq i32 %315, %316
  br i1 %317, label %321, label %318

318:                                              ; preds = %314
  %319 = load i32, ptr %46, align 4
  %320 = icmp eq i32 %319, -1
  br label %321

321:                                              ; preds = %318, %314
  %322 = phi i1 [ true, %314 ], [ %320, %318 ]
  call void @llvm.assume(i1 %322)
  br label %323

323:                                              ; preds = %321, %313, %240, %205, %120, %81
  %324 = load i32, ptr %55, align 4
  %325 = icmp ne i32 %324, 0
  %326 = xor i1 %325, true
  %327 = xor i1 %326, true
  %328 = zext i1 %327 to i32
  %329 = sext i32 %328 to i64
  %330 = icmp ne i64 %329, 0
  br i1 %330, label %331, label %337

331:                                              ; preds = %323
  %332 = load i32, ptr %55, align 4
  %333 = load i32, ptr %48, align 4
  %334 = load ptr, ptr %52, align 8
  %335 = load i32, ptr %51, align 4
  %336 = load ptr, ptr %50, align 8
  call void @zend_wrong_parameter_error(i32 noundef %332, i32 noundef %333, ptr noundef %334, i32 noundef %335, ptr noundef %336)
  br label %374

337:                                              ; preds = %323
  br label %338

338:                                              ; preds = %337
  %339 = load ptr, ptr %40, align 8
  %340 = load i64, ptr %42, align 8
  %341 = load i8, ptr %41, align 1
  %342 = trunc i8 %341 to i1
  %343 = call ptr @php_base64_decode_ex(ptr noundef %339, i64 noundef %340, i1 noundef zeroext %342)
  store ptr %343, ptr %43, align 8
  %344 = load ptr, ptr %43, align 8
  %345 = icmp ne ptr %344, null
  br i1 %345, label %346, label %367

346:                                              ; preds = %338
  br label %347

347:                                              ; preds = %346
  br label %348

348:                                              ; preds = %347
  %349 = load ptr, ptr %39, align 8
  store ptr %349, ptr %56, align 8
  %350 = load ptr, ptr %43, align 8
  store ptr %350, ptr %57, align 8
  %351 = load ptr, ptr %57, align 8
  %352 = load ptr, ptr %56, align 8
  %353 = getelementptr inbounds %struct._zval_struct, ptr %352, i32 0, i32 0
  store ptr %351, ptr %353, align 8
  %354 = load ptr, ptr %57, align 8
  %355 = getelementptr inbounds %struct._zend_string, ptr %354, i32 0, i32 0
  %356 = getelementptr inbounds %struct._zend_refcounted_h, ptr %355, i32 0, i32 1
  %357 = load i32, ptr %356, align 4
  store i32 %357, ptr %30, align 4
  %358 = load i32, ptr %30, align 4
  %359 = and i32 %358, 1008
  %360 = and i32 %359, 64
  %361 = icmp ne i32 %360, 0
  %362 = select i1 %361, i32 6, i32 262
  %363 = load ptr, ptr %56, align 8
  %364 = getelementptr inbounds %struct._zval_struct, ptr %363, i32 0, i32 1
  store i32 %362, ptr %364, align 8
  br label %365

365:                                              ; preds = %348
  br label %374

366:                                              ; No predecessors!
  br label %374

367:                                              ; preds = %338
  br label %368

368:                                              ; preds = %367
  br label %369

369:                                              ; preds = %368
  %370 = load ptr, ptr %39, align 8
  %371 = getelementptr inbounds %struct._zval_struct, ptr %370, i32 0, i32 1
  store i32 2, ptr %371, align 8
  br label %372

372:                                              ; preds = %369
  br label %374

373:                                              ; No predecessors!
  br label %374

374:                                              ; preds = %373, %372, %366, %365, %331
  ret void
}