; Function Attrs: nounwind uwtable
define hidden void @zif_base64_decode(ptr noundef %0, ptr nocapture noundef writeonly %1) local_unnamed_addr #6 {
  %3 = alloca ptr, align 8
  %4 = alloca i8, align 1
  store i8 0, ptr %4, align 1
  %5 = getelementptr inbounds i8, ptr %0, i64 44
  %6 = load i32, ptr %5, align 4
  %7 = add i32 %6, -3
  %or.cond = icmp ult i32 %7, -2
  br i1 %or.cond, label %8, label %9

8:                                                ; preds = %2
  tail call void @zend_wrong_parameters_count_error(i32 noundef 1, i32 noundef 2) #10
  br label %.thread162

9:                                                ; preds = %2
  %10 = getelementptr inbounds i8, ptr %0, i64 80
  %11 = getelementptr inbounds i8, ptr %0, i64 88
  %12 = load i8, ptr %11, align 8
  %13 = icmp eq i8 %12, 6
  br i1 %13, label %.thread, label %15

.thread:                                          ; preds = %9
  %14 = load ptr, ptr %10, align 8
  store ptr %14, ptr %3, align 8
  br label %17

15:                                               ; preds = %9
  %16 = call zeroext i1 @zend_parse_arg_str_slow(ptr noundef nonnull %10, ptr noundef nonnull %3, i32 noundef 1) #10
  br i1 %16, label %._crit_edge, label %.thread162

._crit_edge:                                      ; preds = %15
  %.pre = load ptr, ptr %3, align 8
  br label %17

17:                                               ; preds = %._crit_edge, %.thread
  %18 = phi ptr [ %.pre, %._crit_edge ], [ %14, %.thread ]
  %19 = getelementptr inbounds i8, ptr %18, i64 16
  %20 = load i64, ptr %19, align 8
  %21 = getelementptr inbounds i8, ptr %18, i64 24
  %22 = icmp eq i32 %6, 1
  br i1 %22, label %.thread151, label %23

23:                                               ; preds = %17
  %24 = getelementptr inbounds i8, ptr %0, i64 104
  %25 = load i8, ptr %24, align 8
  switch i8 %25, label %27 [
    i8 3, label %.thread147
    i8 2, label %26
  ]

26:                                               ; preds = %23
  br label %.thread147

.thread147:                                       ; preds = %26, %23
  %storemerge = phi i8 [ 0, %26 ], [ 1, %23 ]
  store i8 %storemerge, ptr %4, align 1
  br label %.thread151

27:                                               ; preds = %23
  %28 = getelementptr inbounds i8, ptr %0, i64 96
  %29 = call zeroext i1 @zend_parse_arg_bool_slow(ptr noundef nonnull %28, ptr noundef nonnull %4, i32 noundef 2) #10
  %.fr = freeze i1 %29
  br i1 %.fr, label %..thread151_crit_edge, label %.thread162

..thread151_crit_edge:                            ; preds = %27
  %.pre175 = load i8, ptr %4, align 1
  br label %.thread151

.thread162:                                       ; preds = %27, %15, %8
  %.0109173 = phi i32 [ 9, %15 ], [ 1, %8 ], [ 9, %27 ]
  %.0111172 = phi i32 [ 4, %15 ], [ 0, %8 ], [ 2, %27 ]
  %.0112171 = phi ptr [ %10, %15 ], [ null, %8 ], [ %28, %27 ]
  %.0113170 = phi i32 [ 1, %15 ], [ 0, %8 ], [ 2, %27 ]
  call void @zend_wrong_parameter_error(i32 noundef %.0109173, i32 noundef %.0113170, ptr noundef null, i32 noundef %.0111172, ptr noundef %.0112171) #10
  br label %42

.thread151:                                       ; preds = %..thread151_crit_edge, %.thread147, %17
  %30 = phi i8 [ %.pre175, %..thread151_crit_edge ], [ %storemerge, %.thread147 ], [ 0, %17 ]
  %31 = and i8 %30, 1
  %32 = icmp ne i8 %31, 0
  %33 = call ptr @php_base64_decode_ex(ptr noundef nonnull %21, i64 noundef %20, i1 noundef zeroext %32) #10
  %.not122 = icmp eq ptr %33, null
  br i1 %.not122, label %40, label %34

34:                                               ; preds = %.thread151
  store ptr %33, ptr %1, align 8
  %35 = getelementptr inbounds i8, ptr %33, i64 4
  %36 = load i32, ptr %35, align 4
  %37 = and i32 %36, 64
  %.not123 = icmp eq i32 %37, 0
  %38 = select i1 %.not123, i32 262, i32 6
  %39 = getelementptr inbounds i8, ptr %1, i64 8
  store i32 %38, ptr %39, align 8
  br label %42

40:                                               ; preds = %.thread151
  %41 = getelementptr inbounds i8, ptr %1, i64 8
  store i32 2, ptr %41, align 8
  br label %42

42:                                               ; preds = %40, %34, %.thread162
  ret void
}